ARM GAS  C:\Users\rdeiaco\AppData\Local\Temp\ccEAHJqD.s 			page 1


   1              		.cpu cortex-m0
   2              		.fpu softvfp
   3              		.eabi_attribute 20, 1
   4              		.eabi_attribute 21, 1
   5              		.eabi_attribute 23, 3
   6              		.eabi_attribute 24, 1
   7              		.eabi_attribute 25, 1
   8              		.eabi_attribute 26, 1
   9              		.eabi_attribute 30, 6
  10              		.eabi_attribute 34, 0
  11              		.eabi_attribute 18, 4
  12              		.code	16
  13              		.file	"main.c"
  14              		.text
  15              	.Ltext0:
  16              		.cfi_sections	.debug_frame
  17              		.section	.rodata
  18              		.align	2
  19              	.LC0:
  20 0000 0D0A2A2A 		.ascii	"\015\012*******************************************"
  20      2A2A2A2A 
  20      2A2A2A2A 
  20      2A2A2A2A 
  20      2A2A2A2A 
  21 002d 2A2A2A2A 		.ascii	"****************************************\015\012\000"
  21      2A2A2A2A 
  21      2A2A2A2A 
  21      2A2A2A2A 
  21      2A2A2A2A 
  22              		.align	2
  23              	.LC2:
  24 0058 54686973 		.ascii	"This is SCB_UartComm datasheet example project\015\012"
  24      20697320 
  24      5343425F 
  24      55617274 
  24      436F6D6D 
  25 0088 00       		.ascii	"\000"
  26 0089 000000   		.align	2
  27              	.LC4:
  28 008c 49662079 		.ascii	"If you are able to read this text the terminal conn"
  28      6F752061 
  28      72652061 
  28      626C6520 
  28      746F2072 
  29 00bf 65637469 		.ascii	"ection is configured correctly.\015\012\000"
  29      6F6E2069 
  29      7320636F 
  29      6E666967 
  29      75726564 
  30 00e1 000000   		.align	2
  31              	.LC6:
  32 00e4 53746172 		.ascii	"Start transmitting the characters to see an echo in"
  32      74207472 
  32      616E736D 
  32      69747469 
  32      6E672074 
  33 0117 20746865 		.ascii	" the terminal.\015\012\000"
ARM GAS  C:\Users\rdeiaco\AppData\Local\Temp\ccEAHJqD.s 			page 2


  33      20746572 
  33      6D696E61 
  33      6C2E0D0A 
  33      00
  34              		.align	2
  35              	.LC8:
  36 0128 0D0A00   		.ascii	"\015\012\000"
  37 012b 00       		.section	.text.main,"ax",%progbits
  38              		.align	2
  39              		.global	main
  40              		.code	16
  41              		.thumb_func
  42              		.type	main, %function
  43              	main:
  44              	.LFB37:
  45              		.file 1 "main.c"
   1:main.c        **** /*******************************************************************************
   2:main.c        **** * File Name: main.c
   3:main.c        **** *
   4:main.c        **** * Version: 1.20
   5:main.c        **** *
   6:main.c        **** * Description:
   7:main.c        **** *  This example project demonstrates the basic operation of the SCB component
   8:main.c        **** *  in the UART mode. The polling method is used to wait for received character.
   9:main.c        **** *  As soon as character is received it is transmitted back. The serial terminal
  10:main.c        **** *  can be used on the PC to send characters and get them back.
  11:main.c        **** *  The example will echo every received character.
  12:main.c        **** *
  13:main.c        **** ********************************************************************************
  14:main.c        **** * Copyright 2014-2015, Cypress Semiconductor Corporation. All rights reserved.
  15:main.c        **** * This software is owned by Cypress Semiconductor Corporation and is protected
  16:main.c        **** * by and subject to worldwide patent and copyright laws and treaties.
  17:main.c        **** * Therefore, you may use this software only as provided in the license agreement
  18:main.c        **** * accompanying the software package from which you obtained this software.
  19:main.c        **** * CYPRESS AND ITS SUPPLIERS MAKE NO WARRANTY OF ANY KIND, EXPRESS OR IMPLIED,
  20:main.c        **** * WITH REGARD TO THIS SOFTWARE, INCLUDING, BUT NOT LIMITED TO, NONINFRINGEMENT,
  21:main.c        **** * IMPLIED WARRANTIES OF MERCHANTABILITY AND FITNESS FOR A PARTICULAR PURPOSE.
  22:main.c        **** *******************************************************************************/
  23:main.c        **** 
  24:main.c        **** #include <project.h>
  25:main.c        **** 
  26:main.c        **** 
  27:main.c        **** /*******************************************************************************
  28:main.c        **** * Function Name: main
  29:main.c        **** ********************************************************************************
  30:main.c        **** * Summary:
  31:main.c        **** *  The main function performs the following actions:
  32:main.c        **** *   1. Sets up UART component.
  33:main.c        **** *   2. UART sends text header into the serial terminal.
  34:main.c        **** *   3. UART waits for the characters to send them back to the serial terminal.
  35:main.c        **** *
  36:main.c        **** * Parameters:
  37:main.c        **** *  None
  38:main.c        **** *
  39:main.c        **** * Return:
  40:main.c        **** *  None
  41:main.c        **** *
ARM GAS  C:\Users\rdeiaco\AppData\Local\Temp\ccEAHJqD.s 			page 3


  42:main.c        **** *******************************************************************************/
  43:main.c        **** int main()
  44:main.c        **** {
  46              		.loc 1 44 0
  47              		.cfi_startproc
  48 0000 80B5     		push	{r7, lr}
  49              		.cfi_def_cfa_offset 8
  50              		.cfi_offset 7, -8
  51              		.cfi_offset 14, -4
  52 0002 82B0     		sub	sp, sp, #8
  53              		.cfi_def_cfa_offset 16
  54 0004 00AF     		add	r7, sp, #0
  55              		.cfi_def_cfa_register 7
  45:main.c        ****     uint32 ch;
  46:main.c        **** 
  47:main.c        ****     /* Start SCB (UART mode) operation */
  48:main.c        ****     UART_Start();
  56              		.loc 1 48 0
  57 0006 FFF7FEFF 		bl	UART_Start
  49:main.c        **** 
  50:main.c        ****     UART_UartPutString("\r\n***********************************************************************
  58              		.loc 1 50 0
  59 000a 104B     		ldr	r3, .L4
  60 000c 181C     		mov	r0, r3
  61 000e FFF7FEFF 		bl	UART_UartPutString
  51:main.c        ****     UART_UartPutString("This is SCB_UartComm datasheet example project\r\n");
  62              		.loc 1 51 0
  63 0012 0F4B     		ldr	r3, .L4+4
  64 0014 181C     		mov	r0, r3
  65 0016 FFF7FEFF 		bl	UART_UartPutString
  52:main.c        ****     UART_UartPutString("If you are able to read this text the terminal connection is configured cor
  66              		.loc 1 52 0
  67 001a 0E4B     		ldr	r3, .L4+8
  68 001c 181C     		mov	r0, r3
  69 001e FFF7FEFF 		bl	UART_UartPutString
  53:main.c        ****     UART_UartPutString("Start transmitting the characters to see an echo in the terminal.\r\n");
  70              		.loc 1 53 0
  71 0022 0D4B     		ldr	r3, .L4+12
  72 0024 181C     		mov	r0, r3
  73 0026 FFF7FEFF 		bl	UART_UartPutString
  54:main.c        ****     UART_UartPutString("\r\n");
  74              		.loc 1 54 0
  75 002a 0C4B     		ldr	r3, .L4+16
  76 002c 181C     		mov	r0, r3
  77 002e FFF7FEFF 		bl	UART_UartPutString
  78              	.L3:
  55:main.c        **** 
  56:main.c        ****     for (;;)
  57:main.c        ****     {
  58:main.c        ****         /* Get received character or zero if nothing has been received yet */
  59:main.c        ****         ch = UART_UartGetChar();
  79              		.loc 1 59 0
  80 0032 FFF7FEFF 		bl	UART_UartGetChar
  81 0036 031C     		mov	r3, r0
  82 0038 7B60     		str	r3, [r7, #4]
  60:main.c        **** 
  61:main.c        ****         if (0u != ch)
ARM GAS  C:\Users\rdeiaco\AppData\Local\Temp\ccEAHJqD.s 			page 4


  83              		.loc 1 61 0
  84 003a 7B68     		ldr	r3, [r7, #4]
  85 003c 002B     		cmp	r3, #0
  86 003e 03D0     		beq	.L2
  62:main.c        ****         {
  63:main.c        ****             /* Transmit the data through UART.
  64:main.c        ****             * This functions is blocking and waits until there is a place in
  65:main.c        ****             * the buffer.
  66:main.c        ****             */
  67:main.c        ****             UART_UartPutChar(ch);
  87              		.loc 1 67 0
  88 0040 7B68     		ldr	r3, [r7, #4]
  89 0042 181C     		mov	r0, r3
  90 0044 FFF7FEFF 		bl	UART_SpiUartWriteTxData
  91              	.L2:
  68:main.c        ****         }
  69:main.c        ****     }
  92              		.loc 1 69 0
  93 0048 F3E7     		b	.L3
  94              	.L5:
  95 004a C046     		.align	2
  96              	.L4:
  97 004c 00000000 		.word	.LC0
  98 0050 58000000 		.word	.LC2
  99 0054 8C000000 		.word	.LC4
 100 0058 E4000000 		.word	.LC6
 101 005c 28010000 		.word	.LC8
 102              		.cfi_endproc
 103              	.LFE37:
 104              		.size	main, .-main
 105              		.text
 106              	.Letext0:
 107              		.file 2 "Generated_Source\\PSoC4/cytypes.h"